ARM GAS  /tmp/ccH3Hg0L.s 			page 1


   1              		.cpu cortex-m4
   2              		.eabi_attribute 27, 1
   3              		.eabi_attribute 28, 1
   4              		.eabi_attribute 20, 1
   5              		.eabi_attribute 21, 1
   6              		.eabi_attribute 23, 3
   7              		.eabi_attribute 24, 1
   8              		.eabi_attribute 25, 1
   9              		.eabi_attribute 26, 1
  10              		.eabi_attribute 30, 1
  11              		.eabi_attribute 34, 1
  12              		.eabi_attribute 18, 4
  13              		.file	"gpio.c"
  14              		.text
  15              	.Ltext0:
  16              		.cfi_sections	.debug_frame
  17              		.section	.text.MX_GPIO_Init,"ax",%progbits
  18              		.align	1
  19              		.global	MX_GPIO_Init
  20              		.arch armv7e-m
  21              		.syntax unified
  22              		.thumb
  23              		.thumb_func
  24              		.fpu fpv4-sp-d16
  26              	MX_GPIO_Init:
  27              	.LFB134:
  28              		.file 1 "Core/Src/gpio.c"
   1:Core/Src/gpio.c **** /* USER CODE BEGIN Header */
   2:Core/Src/gpio.c **** /**
   3:Core/Src/gpio.c ****   ******************************************************************************
   4:Core/Src/gpio.c ****   * @file    gpio.c
   5:Core/Src/gpio.c ****   * @brief   This file provides code for the configuration
   6:Core/Src/gpio.c ****   *          of all used GPIO pins.
   7:Core/Src/gpio.c ****   ******************************************************************************
   8:Core/Src/gpio.c ****   * @attention
   9:Core/Src/gpio.c ****   *
  10:Core/Src/gpio.c ****   * Copyright (c) 2024 STMicroelectronics.
  11:Core/Src/gpio.c ****   * All rights reserved.
  12:Core/Src/gpio.c ****   *
  13:Core/Src/gpio.c ****   * This software is licensed under terms that can be found in the LICENSE file
  14:Core/Src/gpio.c ****   * in the root directory of this software component.
  15:Core/Src/gpio.c ****   * If no LICENSE file comes with this software, it is provided AS-IS.
  16:Core/Src/gpio.c ****   *
  17:Core/Src/gpio.c ****   ******************************************************************************
  18:Core/Src/gpio.c ****   */
  19:Core/Src/gpio.c **** /* USER CODE END Header */
  20:Core/Src/gpio.c **** 
  21:Core/Src/gpio.c **** /* Includes ------------------------------------------------------------------*/
  22:Core/Src/gpio.c **** #include "gpio.h"
  23:Core/Src/gpio.c **** 
  24:Core/Src/gpio.c **** /* USER CODE BEGIN 0 */
  25:Core/Src/gpio.c **** 
  26:Core/Src/gpio.c **** /* USER CODE END 0 */
  27:Core/Src/gpio.c **** 
  28:Core/Src/gpio.c **** /*----------------------------------------------------------------------------*/
  29:Core/Src/gpio.c **** /* Configure GPIO                                                             */
  30:Core/Src/gpio.c **** /*----------------------------------------------------------------------------*/
ARM GAS  /tmp/ccH3Hg0L.s 			page 2


  31:Core/Src/gpio.c **** /* USER CODE BEGIN 1 */
  32:Core/Src/gpio.c **** 
  33:Core/Src/gpio.c **** /* USER CODE END 1 */
  34:Core/Src/gpio.c **** 
  35:Core/Src/gpio.c **** /** Configure pins as
  36:Core/Src/gpio.c ****         * Analog
  37:Core/Src/gpio.c ****         * Input
  38:Core/Src/gpio.c ****         * Output
  39:Core/Src/gpio.c ****         * EVENT_OUT
  40:Core/Src/gpio.c ****         * EXTI
  41:Core/Src/gpio.c ****      PC1   ------> ETH_MDC
  42:Core/Src/gpio.c ****      PA1   ------> ETH_REF_CLK
  43:Core/Src/gpio.c ****      PA2   ------> ETH_MDIO
  44:Core/Src/gpio.c ****      PA7   ------> ETH_CRS_DV
  45:Core/Src/gpio.c ****      PC4   ------> ETH_RXD0
  46:Core/Src/gpio.c ****      PC5   ------> ETH_RXD1
  47:Core/Src/gpio.c ****      PB13   ------> ETH_TXD1
  48:Core/Src/gpio.c ****      PA8   ------> USB_OTG_FS_SOF
  49:Core/Src/gpio.c ****      PA9   ------> USB_OTG_FS_VBUS
  50:Core/Src/gpio.c ****      PA10   ------> USB_OTG_FS_ID
  51:Core/Src/gpio.c ****      PA11   ------> USB_OTG_FS_DM
  52:Core/Src/gpio.c ****      PA12   ------> USB_OTG_FS_DP
  53:Core/Src/gpio.c ****      PG11   ------> ETH_TX_EN
  54:Core/Src/gpio.c ****      PG13   ------> ETH_TXD0
  55:Core/Src/gpio.c **** */
  56:Core/Src/gpio.c **** void MX_GPIO_Init(void)
  57:Core/Src/gpio.c **** {
  29              		.loc 1 57 1 view -0
  30              		.cfi_startproc
  31              		@ args = 0, pretend = 0, frame = 48
  32              		@ frame_needed = 0, uses_anonymous_args = 0
  33 0000 2DE9F04F 		push	{r4, r5, r6, r7, r8, r9, r10, fp, lr}
  34              	.LCFI0:
  35              		.cfi_def_cfa_offset 36
  36              		.cfi_offset 4, -36
  37              		.cfi_offset 5, -32
  38              		.cfi_offset 6, -28
  39              		.cfi_offset 7, -24
  40              		.cfi_offset 8, -20
  41              		.cfi_offset 9, -16
  42              		.cfi_offset 10, -12
  43              		.cfi_offset 11, -8
  44              		.cfi_offset 14, -4
  45 0004 8DB0     		sub	sp, sp, #52
  46              	.LCFI1:
  47              		.cfi_def_cfa_offset 88
  58:Core/Src/gpio.c **** 
  59:Core/Src/gpio.c ****   GPIO_InitTypeDef GPIO_InitStruct = {0};
  48              		.loc 1 59 3 view .LVU1
  49              		.loc 1 59 20 is_stmt 0 view .LVU2
  50 0006 0024     		movs	r4, #0
  51 0008 0794     		str	r4, [sp, #28]
  52 000a 0894     		str	r4, [sp, #32]
  53 000c 0994     		str	r4, [sp, #36]
  54 000e 0A94     		str	r4, [sp, #40]
  55 0010 0B94     		str	r4, [sp, #44]
  60:Core/Src/gpio.c **** 
ARM GAS  /tmp/ccH3Hg0L.s 			page 3


  61:Core/Src/gpio.c ****   /* GPIO Ports Clock Enable */
  62:Core/Src/gpio.c ****   __HAL_RCC_GPIOC_CLK_ENABLE();
  56              		.loc 1 62 3 is_stmt 1 view .LVU3
  57              	.LBB2:
  58              		.loc 1 62 3 view .LVU4
  59 0012 0094     		str	r4, [sp]
  60              		.loc 1 62 3 view .LVU5
  61 0014 644B     		ldr	r3, .L3
  62 0016 1A6B     		ldr	r2, [r3, #48]
  63 0018 42F00402 		orr	r2, r2, #4
  64 001c 1A63     		str	r2, [r3, #48]
  65              		.loc 1 62 3 view .LVU6
  66 001e 1A6B     		ldr	r2, [r3, #48]
  67 0020 02F00402 		and	r2, r2, #4
  68 0024 0092     		str	r2, [sp]
  69              		.loc 1 62 3 view .LVU7
  70 0026 009A     		ldr	r2, [sp]
  71              	.LBE2:
  72              		.loc 1 62 3 view .LVU8
  63:Core/Src/gpio.c ****   __HAL_RCC_GPIOH_CLK_ENABLE();
  73              		.loc 1 63 3 view .LVU9
  74              	.LBB3:
  75              		.loc 1 63 3 view .LVU10
  76 0028 0194     		str	r4, [sp, #4]
  77              		.loc 1 63 3 view .LVU11
  78 002a 1A6B     		ldr	r2, [r3, #48]
  79 002c 42F08002 		orr	r2, r2, #128
  80 0030 1A63     		str	r2, [r3, #48]
  81              		.loc 1 63 3 view .LVU12
  82 0032 1A6B     		ldr	r2, [r3, #48]
  83 0034 02F08002 		and	r2, r2, #128
  84 0038 0192     		str	r2, [sp, #4]
  85              		.loc 1 63 3 view .LVU13
  86 003a 019A     		ldr	r2, [sp, #4]
  87              	.LBE3:
  88              		.loc 1 63 3 view .LVU14
  64:Core/Src/gpio.c ****   __HAL_RCC_GPIOA_CLK_ENABLE();
  89              		.loc 1 64 3 view .LVU15
  90              	.LBB4:
  91              		.loc 1 64 3 view .LVU16
  92 003c 0294     		str	r4, [sp, #8]
  93              		.loc 1 64 3 view .LVU17
  94 003e 1A6B     		ldr	r2, [r3, #48]
  95 0040 42F00102 		orr	r2, r2, #1
  96 0044 1A63     		str	r2, [r3, #48]
  97              		.loc 1 64 3 view .LVU18
  98 0046 1A6B     		ldr	r2, [r3, #48]
  99 0048 02F00102 		and	r2, r2, #1
 100 004c 0292     		str	r2, [sp, #8]
 101              		.loc 1 64 3 view .LVU19
 102 004e 029A     		ldr	r2, [sp, #8]
 103              	.LBE4:
 104              		.loc 1 64 3 view .LVU20
  65:Core/Src/gpio.c ****   __HAL_RCC_GPIOB_CLK_ENABLE();
 105              		.loc 1 65 3 view .LVU21
 106              	.LBB5:
 107              		.loc 1 65 3 view .LVU22
ARM GAS  /tmp/ccH3Hg0L.s 			page 4


 108 0050 0394     		str	r4, [sp, #12]
 109              		.loc 1 65 3 view .LVU23
 110 0052 1A6B     		ldr	r2, [r3, #48]
 111 0054 42F00202 		orr	r2, r2, #2
 112 0058 1A63     		str	r2, [r3, #48]
 113              		.loc 1 65 3 view .LVU24
 114 005a 1A6B     		ldr	r2, [r3, #48]
 115 005c 02F00202 		and	r2, r2, #2
 116 0060 0392     		str	r2, [sp, #12]
 117              		.loc 1 65 3 view .LVU25
 118 0062 039A     		ldr	r2, [sp, #12]
 119              	.LBE5:
 120              		.loc 1 65 3 view .LVU26
  66:Core/Src/gpio.c ****   __HAL_RCC_GPIOE_CLK_ENABLE();
 121              		.loc 1 66 3 view .LVU27
 122              	.LBB6:
 123              		.loc 1 66 3 view .LVU28
 124 0064 0494     		str	r4, [sp, #16]
 125              		.loc 1 66 3 view .LVU29
 126 0066 1A6B     		ldr	r2, [r3, #48]
 127 0068 42F01002 		orr	r2, r2, #16
 128 006c 1A63     		str	r2, [r3, #48]
 129              		.loc 1 66 3 view .LVU30
 130 006e 1A6B     		ldr	r2, [r3, #48]
 131 0070 02F01002 		and	r2, r2, #16
 132 0074 0492     		str	r2, [sp, #16]
 133              		.loc 1 66 3 view .LVU31
 134 0076 049A     		ldr	r2, [sp, #16]
 135              	.LBE6:
 136              		.loc 1 66 3 view .LVU32
  67:Core/Src/gpio.c ****   __HAL_RCC_GPIOD_CLK_ENABLE();
 137              		.loc 1 67 3 view .LVU33
 138              	.LBB7:
 139              		.loc 1 67 3 view .LVU34
 140 0078 0594     		str	r4, [sp, #20]
 141              		.loc 1 67 3 view .LVU35
 142 007a 1A6B     		ldr	r2, [r3, #48]
 143 007c 42F00802 		orr	r2, r2, #8
 144 0080 1A63     		str	r2, [r3, #48]
 145              		.loc 1 67 3 view .LVU36
 146 0082 1A6B     		ldr	r2, [r3, #48]
 147 0084 02F00802 		and	r2, r2, #8
 148 0088 0592     		str	r2, [sp, #20]
 149              		.loc 1 67 3 view .LVU37
 150 008a 059A     		ldr	r2, [sp, #20]
 151              	.LBE7:
 152              		.loc 1 67 3 view .LVU38
  68:Core/Src/gpio.c ****   __HAL_RCC_GPIOG_CLK_ENABLE();
 153              		.loc 1 68 3 view .LVU39
 154              	.LBB8:
 155              		.loc 1 68 3 view .LVU40
 156 008c 0694     		str	r4, [sp, #24]
 157              		.loc 1 68 3 view .LVU41
 158 008e 1A6B     		ldr	r2, [r3, #48]
 159 0090 42F04002 		orr	r2, r2, #64
 160 0094 1A63     		str	r2, [r3, #48]
 161              		.loc 1 68 3 view .LVU42
ARM GAS  /tmp/ccH3Hg0L.s 			page 5


 162 0096 1B6B     		ldr	r3, [r3, #48]
 163 0098 03F04003 		and	r3, r3, #64
 164 009c 0693     		str	r3, [sp, #24]
 165              		.loc 1 68 3 view .LVU43
 166 009e 069B     		ldr	r3, [sp, #24]
 167              	.LBE8:
 168              		.loc 1 68 3 view .LVU44
  69:Core/Src/gpio.c **** 
  70:Core/Src/gpio.c ****   /*Configure GPIO pin Output Level */
  71:Core/Src/gpio.c ****   HAL_GPIO_WritePin(GPIOB, LD1_Pin|LD3_Pin|LD2_Pin, GPIO_PIN_RESET);
 169              		.loc 1 71 3 view .LVU45
 170 00a0 DFF80CA1 		ldr	r10, .L3+8
 171 00a4 2246     		mov	r2, r4
 172 00a6 44F28101 		movw	r1, #16513
 173 00aa 5046     		mov	r0, r10
 174 00ac FFF7FEFF 		bl	HAL_GPIO_WritePin
 175              	.LVL0:
  72:Core/Src/gpio.c **** 
  73:Core/Src/gpio.c ****   /*Configure GPIO pin Output Level */
  74:Core/Src/gpio.c ****   HAL_GPIO_WritePin(USB_PowerSwitchOn_GPIO_Port, USB_PowerSwitchOn_Pin, GPIO_PIN_RESET);
 176              		.loc 1 74 3 view .LVU46
 177 00b0 3E4F     		ldr	r7, .L3+4
 178 00b2 2246     		mov	r2, r4
 179 00b4 4021     		movs	r1, #64
 180 00b6 3846     		mov	r0, r7
 181 00b8 FFF7FEFF 		bl	HAL_GPIO_WritePin
 182              	.LVL1:
  75:Core/Src/gpio.c **** 
  76:Core/Src/gpio.c ****   /*Configure GPIO pin : PtPin */
  77:Core/Src/gpio.c ****   GPIO_InitStruct.Pin = USER_Btn_Pin;
 183              		.loc 1 77 3 view .LVU47
 184              		.loc 1 77 23 is_stmt 0 view .LVU48
 185 00bc 4FF4005B 		mov	fp, #8192
 186 00c0 CDF81CB0 		str	fp, [sp, #28]
  78:Core/Src/gpio.c ****   GPIO_InitStruct.Mode = GPIO_MODE_IT_RISING;
 187              		.loc 1 78 3 is_stmt 1 view .LVU49
 188              		.loc 1 78 24 is_stmt 0 view .LVU50
 189 00c4 4FF48813 		mov	r3, #1114112
 190 00c8 0893     		str	r3, [sp, #32]
  79:Core/Src/gpio.c ****   GPIO_InitStruct.Pull = GPIO_NOPULL;
 191              		.loc 1 79 3 is_stmt 1 view .LVU51
 192              		.loc 1 79 24 is_stmt 0 view .LVU52
 193 00ca 0994     		str	r4, [sp, #36]
  80:Core/Src/gpio.c ****   HAL_GPIO_Init(USER_Btn_GPIO_Port, &GPIO_InitStruct);
 194              		.loc 1 80 3 is_stmt 1 view .LVU53
 195 00cc DFF8E490 		ldr	r9, .L3+12
 196 00d0 07A9     		add	r1, sp, #28
 197 00d2 4846     		mov	r0, r9
 198 00d4 FFF7FEFF 		bl	HAL_GPIO_Init
 199              	.LVL2:
  81:Core/Src/gpio.c **** 
  82:Core/Src/gpio.c ****   /*Configure GPIO pins : PCPin PCPin PCPin */
  83:Core/Src/gpio.c ****   GPIO_InitStruct.Pin = RMII_MDC_Pin|RMII_RXD0_Pin|RMII_RXD1_Pin;
 200              		.loc 1 83 3 view .LVU54
 201              		.loc 1 83 23 is_stmt 0 view .LVU55
 202 00d8 3223     		movs	r3, #50
 203 00da 0793     		str	r3, [sp, #28]
ARM GAS  /tmp/ccH3Hg0L.s 			page 6


  84:Core/Src/gpio.c ****   GPIO_InitStruct.Mode = GPIO_MODE_AF_PP;
 204              		.loc 1 84 3 is_stmt 1 view .LVU56
 205              		.loc 1 84 24 is_stmt 0 view .LVU57
 206 00dc 0226     		movs	r6, #2
 207 00de 0896     		str	r6, [sp, #32]
  85:Core/Src/gpio.c ****   GPIO_InitStruct.Pull = GPIO_NOPULL;
 208              		.loc 1 85 3 is_stmt 1 view .LVU58
 209              		.loc 1 85 24 is_stmt 0 view .LVU59
 210 00e0 0994     		str	r4, [sp, #36]
  86:Core/Src/gpio.c ****   GPIO_InitStruct.Speed = GPIO_SPEED_FREQ_VERY_HIGH;
 211              		.loc 1 86 3 is_stmt 1 view .LVU60
 212              		.loc 1 86 25 is_stmt 0 view .LVU61
 213 00e2 0325     		movs	r5, #3
 214 00e4 0A95     		str	r5, [sp, #40]
  87:Core/Src/gpio.c ****   GPIO_InitStruct.Alternate = GPIO_AF11_ETH;
 215              		.loc 1 87 3 is_stmt 1 view .LVU62
 216              		.loc 1 87 29 is_stmt 0 view .LVU63
 217 00e6 4FF00B08 		mov	r8, #11
 218 00ea CDF82C80 		str	r8, [sp, #44]
  88:Core/Src/gpio.c ****   HAL_GPIO_Init(GPIOC, &GPIO_InitStruct);
 219              		.loc 1 88 3 is_stmt 1 view .LVU64
 220 00ee 07A9     		add	r1, sp, #28
 221 00f0 4846     		mov	r0, r9
 222 00f2 FFF7FEFF 		bl	HAL_GPIO_Init
 223              	.LVL3:
  89:Core/Src/gpio.c **** 
  90:Core/Src/gpio.c ****   /*Configure GPIO pins : PAPin PAPin PAPin */
  91:Core/Src/gpio.c ****   GPIO_InitStruct.Pin = RMII_REF_CLK_Pin|RMII_MDIO_Pin|RMII_CRS_DV_Pin;
 224              		.loc 1 91 3 view .LVU65
 225              		.loc 1 91 23 is_stmt 0 view .LVU66
 226 00f6 8623     		movs	r3, #134
 227 00f8 0793     		str	r3, [sp, #28]
  92:Core/Src/gpio.c ****   GPIO_InitStruct.Mode = GPIO_MODE_AF_PP;
 228              		.loc 1 92 3 is_stmt 1 view .LVU67
 229              		.loc 1 92 24 is_stmt 0 view .LVU68
 230 00fa 0896     		str	r6, [sp, #32]
  93:Core/Src/gpio.c ****   GPIO_InitStruct.Pull = GPIO_NOPULL;
 231              		.loc 1 93 3 is_stmt 1 view .LVU69
 232              		.loc 1 93 24 is_stmt 0 view .LVU70
 233 00fc 0994     		str	r4, [sp, #36]
  94:Core/Src/gpio.c ****   GPIO_InitStruct.Speed = GPIO_SPEED_FREQ_VERY_HIGH;
 234              		.loc 1 94 3 is_stmt 1 view .LVU71
 235              		.loc 1 94 25 is_stmt 0 view .LVU72
 236 00fe 0A95     		str	r5, [sp, #40]
  95:Core/Src/gpio.c ****   GPIO_InitStruct.Alternate = GPIO_AF11_ETH;
 237              		.loc 1 95 3 is_stmt 1 view .LVU73
 238              		.loc 1 95 29 is_stmt 0 view .LVU74
 239 0100 CDF82C80 		str	r8, [sp, #44]
  96:Core/Src/gpio.c ****   HAL_GPIO_Init(GPIOA, &GPIO_InitStruct);
 240              		.loc 1 96 3 is_stmt 1 view .LVU75
 241 0104 A9F50069 		sub	r9, r9, #2048
 242 0108 07A9     		add	r1, sp, #28
 243 010a 4846     		mov	r0, r9
 244 010c FFF7FEFF 		bl	HAL_GPIO_Init
 245              	.LVL4:
  97:Core/Src/gpio.c **** 
  98:Core/Src/gpio.c ****   /*Configure GPIO pins : PBPin PBPin PBPin */
ARM GAS  /tmp/ccH3Hg0L.s 			page 7


  99:Core/Src/gpio.c ****   GPIO_InitStruct.Pin = LD1_Pin|LD3_Pin|LD2_Pin;
 246              		.loc 1 99 3 view .LVU76
 247              		.loc 1 99 23 is_stmt 0 view .LVU77
 248 0110 44F28103 		movw	r3, #16513
 249 0114 0793     		str	r3, [sp, #28]
 100:Core/Src/gpio.c ****   GPIO_InitStruct.Mode = GPIO_MODE_OUTPUT_PP;
 250              		.loc 1 100 3 is_stmt 1 view .LVU78
 251              		.loc 1 100 24 is_stmt 0 view .LVU79
 252 0116 0123     		movs	r3, #1
 253 0118 0893     		str	r3, [sp, #32]
 101:Core/Src/gpio.c ****   GPIO_InitStruct.Pull = GPIO_NOPULL;
 254              		.loc 1 101 3 is_stmt 1 view .LVU80
 255              		.loc 1 101 24 is_stmt 0 view .LVU81
 256 011a 0994     		str	r4, [sp, #36]
 102:Core/Src/gpio.c ****   GPIO_InitStruct.Speed = GPIO_SPEED_FREQ_LOW;
 257              		.loc 1 102 3 is_stmt 1 view .LVU82
 258              		.loc 1 102 25 is_stmt 0 view .LVU83
 259 011c 0A94     		str	r4, [sp, #40]
 103:Core/Src/gpio.c ****   HAL_GPIO_Init(GPIOB, &GPIO_InitStruct);
 260              		.loc 1 103 3 is_stmt 1 view .LVU84
 261 011e 07A9     		add	r1, sp, #28
 262 0120 5046     		mov	r0, r10
 263 0122 FFF7FEFF 		bl	HAL_GPIO_Init
 264              	.LVL5:
 104:Core/Src/gpio.c **** 
 105:Core/Src/gpio.c ****   /*Configure GPIO pin : PtPin */
 106:Core/Src/gpio.c ****   GPIO_InitStruct.Pin = RMII_TXD1_Pin;
 265              		.loc 1 106 3 view .LVU85
 266              		.loc 1 106 23 is_stmt 0 view .LVU86
 267 0126 CDF81CB0 		str	fp, [sp, #28]
 107:Core/Src/gpio.c ****   GPIO_InitStruct.Mode = GPIO_MODE_AF_PP;
 268              		.loc 1 107 3 is_stmt 1 view .LVU87
 269              		.loc 1 107 24 is_stmt 0 view .LVU88
 270 012a 0896     		str	r6, [sp, #32]
 108:Core/Src/gpio.c ****   GPIO_InitStruct.Pull = GPIO_NOPULL;
 271              		.loc 1 108 3 is_stmt 1 view .LVU89
 272              		.loc 1 108 24 is_stmt 0 view .LVU90
 273 012c 0994     		str	r4, [sp, #36]
 109:Core/Src/gpio.c ****   GPIO_InitStruct.Speed = GPIO_SPEED_FREQ_VERY_HIGH;
 274              		.loc 1 109 3 is_stmt 1 view .LVU91
 275              		.loc 1 109 25 is_stmt 0 view .LVU92
 276 012e 0A95     		str	r5, [sp, #40]
 110:Core/Src/gpio.c ****   GPIO_InitStruct.Alternate = GPIO_AF11_ETH;
 277              		.loc 1 110 3 is_stmt 1 view .LVU93
 278              		.loc 1 110 29 is_stmt 0 view .LVU94
 279 0130 CDF82C80 		str	r8, [sp, #44]
 111:Core/Src/gpio.c ****   HAL_GPIO_Init(RMII_TXD1_GPIO_Port, &GPIO_InitStruct);
 280              		.loc 1 111 3 is_stmt 1 view .LVU95
 281 0134 07A9     		add	r1, sp, #28
 282 0136 5046     		mov	r0, r10
 283 0138 FFF7FEFF 		bl	HAL_GPIO_Init
 284              	.LVL6:
 112:Core/Src/gpio.c **** 
 113:Core/Src/gpio.c ****   /*Configure GPIO pin : PtPin */
 114:Core/Src/gpio.c ****   GPIO_InitStruct.Pin = USB_PowerSwitchOn_Pin;
 285              		.loc 1 114 3 view .LVU96
 286              		.loc 1 114 23 is_stmt 0 view .LVU97
ARM GAS  /tmp/ccH3Hg0L.s 			page 8


 287 013c 4023     		movs	r3, #64
 288 013e 0793     		str	r3, [sp, #28]
 115:Core/Src/gpio.c ****   GPIO_InitStruct.Mode = GPIO_MODE_OUTPUT_PP;
 289              		.loc 1 115 3 is_stmt 1 view .LVU98
 290              		.loc 1 115 24 is_stmt 0 view .LVU99
 291 0140 0123     		movs	r3, #1
 292 0142 0893     		str	r3, [sp, #32]
 116:Core/Src/gpio.c ****   GPIO_InitStruct.Pull = GPIO_NOPULL;
 293              		.loc 1 116 3 is_stmt 1 view .LVU100
 294              		.loc 1 116 24 is_stmt 0 view .LVU101
 295 0144 0994     		str	r4, [sp, #36]
 117:Core/Src/gpio.c ****   GPIO_InitStruct.Speed = GPIO_SPEED_FREQ_LOW;
 296              		.loc 1 117 3 is_stmt 1 view .LVU102
 297              		.loc 1 117 25 is_stmt 0 view .LVU103
 298 0146 0A94     		str	r4, [sp, #40]
 118:Core/Src/gpio.c ****   HAL_GPIO_Init(USB_PowerSwitchOn_GPIO_Port, &GPIO_InitStruct);
 299              		.loc 1 118 3 is_stmt 1 view .LVU104
 300 0148 07A9     		add	r1, sp, #28
 301 014a 3846     		mov	r0, r7
 302 014c FFF7FEFF 		bl	HAL_GPIO_Init
 303              	.LVL7:
 119:Core/Src/gpio.c **** 
 120:Core/Src/gpio.c ****   /*Configure GPIO pin : PtPin */
 121:Core/Src/gpio.c ****   GPIO_InitStruct.Pin = USB_OverCurrent_Pin;
 304              		.loc 1 121 3 view .LVU105
 305              		.loc 1 121 23 is_stmt 0 view .LVU106
 306 0150 8023     		movs	r3, #128
 307 0152 0793     		str	r3, [sp, #28]
 122:Core/Src/gpio.c ****   GPIO_InitStruct.Mode = GPIO_MODE_INPUT;
 308              		.loc 1 122 3 is_stmt 1 view .LVU107
 309              		.loc 1 122 24 is_stmt 0 view .LVU108
 310 0154 0894     		str	r4, [sp, #32]
 123:Core/Src/gpio.c ****   GPIO_InitStruct.Pull = GPIO_NOPULL;
 311              		.loc 1 123 3 is_stmt 1 view .LVU109
 312              		.loc 1 123 24 is_stmt 0 view .LVU110
 313 0156 0994     		str	r4, [sp, #36]
 124:Core/Src/gpio.c ****   HAL_GPIO_Init(USB_OverCurrent_GPIO_Port, &GPIO_InitStruct);
 314              		.loc 1 124 3 is_stmt 1 view .LVU111
 315 0158 07A9     		add	r1, sp, #28
 316 015a 3846     		mov	r0, r7
 317 015c FFF7FEFF 		bl	HAL_GPIO_Init
 318              	.LVL8:
 125:Core/Src/gpio.c **** 
 126:Core/Src/gpio.c ****   /*Configure GPIO pins : PAPin PAPin PAPin PAPin */
 127:Core/Src/gpio.c ****   GPIO_InitStruct.Pin = USB_SOF_Pin|USB_ID_Pin|USB_DM_Pin|USB_DP_Pin;
 319              		.loc 1 127 3 view .LVU112
 320              		.loc 1 127 23 is_stmt 0 view .LVU113
 321 0160 4FF4E853 		mov	r3, #7424
 322 0164 0793     		str	r3, [sp, #28]
 128:Core/Src/gpio.c ****   GPIO_InitStruct.Mode = GPIO_MODE_AF_PP;
 323              		.loc 1 128 3 is_stmt 1 view .LVU114
 324              		.loc 1 128 24 is_stmt 0 view .LVU115
 325 0166 0896     		str	r6, [sp, #32]
 129:Core/Src/gpio.c ****   GPIO_InitStruct.Pull = GPIO_NOPULL;
 326              		.loc 1 129 3 is_stmt 1 view .LVU116
 327              		.loc 1 129 24 is_stmt 0 view .LVU117
 328 0168 0994     		str	r4, [sp, #36]
ARM GAS  /tmp/ccH3Hg0L.s 			page 9


 130:Core/Src/gpio.c ****   GPIO_InitStruct.Speed = GPIO_SPEED_FREQ_VERY_HIGH;
 329              		.loc 1 130 3 is_stmt 1 view .LVU118
 330              		.loc 1 130 25 is_stmt 0 view .LVU119
 331 016a 0A95     		str	r5, [sp, #40]
 131:Core/Src/gpio.c ****   GPIO_InitStruct.Alternate = GPIO_AF10_OTG_FS;
 332              		.loc 1 131 3 is_stmt 1 view .LVU120
 333              		.loc 1 131 29 is_stmt 0 view .LVU121
 334 016c 0A23     		movs	r3, #10
 335 016e 0B93     		str	r3, [sp, #44]
 132:Core/Src/gpio.c ****   HAL_GPIO_Init(GPIOA, &GPIO_InitStruct);
 336              		.loc 1 132 3 is_stmt 1 view .LVU122
 337 0170 07A9     		add	r1, sp, #28
 338 0172 4846     		mov	r0, r9
 339 0174 FFF7FEFF 		bl	HAL_GPIO_Init
 340              	.LVL9:
 133:Core/Src/gpio.c **** 
 134:Core/Src/gpio.c ****   /*Configure GPIO pin : PtPin */
 135:Core/Src/gpio.c ****   GPIO_InitStruct.Pin = USB_VBUS_Pin;
 341              		.loc 1 135 3 view .LVU123
 342              		.loc 1 135 23 is_stmt 0 view .LVU124
 343 0178 4FF40073 		mov	r3, #512
 344 017c 0793     		str	r3, [sp, #28]
 136:Core/Src/gpio.c ****   GPIO_InitStruct.Mode = GPIO_MODE_INPUT;
 345              		.loc 1 136 3 is_stmt 1 view .LVU125
 346              		.loc 1 136 24 is_stmt 0 view .LVU126
 347 017e 0894     		str	r4, [sp, #32]
 137:Core/Src/gpio.c ****   GPIO_InitStruct.Pull = GPIO_NOPULL;
 348              		.loc 1 137 3 is_stmt 1 view .LVU127
 349              		.loc 1 137 24 is_stmt 0 view .LVU128
 350 0180 0994     		str	r4, [sp, #36]
 138:Core/Src/gpio.c ****   HAL_GPIO_Init(USB_VBUS_GPIO_Port, &GPIO_InitStruct);
 351              		.loc 1 138 3 is_stmt 1 view .LVU129
 352 0182 07A9     		add	r1, sp, #28
 353 0184 4846     		mov	r0, r9
 354 0186 FFF7FEFF 		bl	HAL_GPIO_Init
 355              	.LVL10:
 139:Core/Src/gpio.c **** 
 140:Core/Src/gpio.c ****   /*Configure GPIO pins : PGPin PGPin */
 141:Core/Src/gpio.c ****   GPIO_InitStruct.Pin = RMII_TX_EN_Pin|RMII_TXD0_Pin;
 356              		.loc 1 141 3 view .LVU130
 357              		.loc 1 141 23 is_stmt 0 view .LVU131
 358 018a 4FF42053 		mov	r3, #10240
 359 018e 0793     		str	r3, [sp, #28]
 142:Core/Src/gpio.c ****   GPIO_InitStruct.Mode = GPIO_MODE_AF_PP;
 360              		.loc 1 142 3 is_stmt 1 view .LVU132
 361              		.loc 1 142 24 is_stmt 0 view .LVU133
 362 0190 0896     		str	r6, [sp, #32]
 143:Core/Src/gpio.c ****   GPIO_InitStruct.Pull = GPIO_NOPULL;
 363              		.loc 1 143 3 is_stmt 1 view .LVU134
 364              		.loc 1 143 24 is_stmt 0 view .LVU135
 365 0192 0994     		str	r4, [sp, #36]
 144:Core/Src/gpio.c ****   GPIO_InitStruct.Speed = GPIO_SPEED_FREQ_VERY_HIGH;
 366              		.loc 1 144 3 is_stmt 1 view .LVU136
 367              		.loc 1 144 25 is_stmt 0 view .LVU137
 368 0194 0A95     		str	r5, [sp, #40]
 145:Core/Src/gpio.c ****   GPIO_InitStruct.Alternate = GPIO_AF11_ETH;
 369              		.loc 1 145 3 is_stmt 1 view .LVU138
ARM GAS  /tmp/ccH3Hg0L.s 			page 10


 370              		.loc 1 145 29 is_stmt 0 view .LVU139
 371 0196 CDF82C80 		str	r8, [sp, #44]
 146:Core/Src/gpio.c ****   HAL_GPIO_Init(GPIOG, &GPIO_InitStruct);
 372              		.loc 1 146 3 is_stmt 1 view .LVU140
 373 019a 07A9     		add	r1, sp, #28
 374 019c 3846     		mov	r0, r7
 375 019e FFF7FEFF 		bl	HAL_GPIO_Init
 376              	.LVL11:
 147:Core/Src/gpio.c **** 
 148:Core/Src/gpio.c **** }
 377              		.loc 1 148 1 is_stmt 0 view .LVU141
 378 01a2 0DB0     		add	sp, sp, #52
 379              	.LCFI2:
 380              		.cfi_def_cfa_offset 36
 381              		@ sp needed
 382 01a4 BDE8F08F 		pop	{r4, r5, r6, r7, r8, r9, r10, fp, pc}
 383              	.L4:
 384              		.align	2
 385              	.L3:
 386 01a8 00380240 		.word	1073887232
 387 01ac 00180240 		.word	1073879040
 388 01b0 00040240 		.word	1073873920
 389 01b4 00080240 		.word	1073874944
 390              		.cfi_endproc
 391              	.LFE134:
 393              		.text
 394              	.Letext0:
 395              		.file 2 "/usr/lib/gcc/arm-none-eabi/10.3.1/include/stdint.h"
 396              		.file 3 "Drivers/CMSIS/Device/ST/STM32F4xx/Include/stm32f429xx.h"
 397              		.file 4 "Drivers/STM32F4xx_HAL_Driver/Inc/stm32f4xx_hal_gpio.h"
ARM GAS  /tmp/ccH3Hg0L.s 			page 11

